target datalayout = "e-m:e-p270:32:32-p271:32:32-p272:64:64-i64:64-i128:128-f80:128-n8:16:32:64-S128"
target triple = "x86_64-pc-linux-gnu"

@PyExc_OSError = external global ptr, align 8
@PyExc_OverflowError = external global ptr, align 8
@.str.119 = private unnamed_addr constant [19 x i8] c"index is too large\00", align 1

; Function Attrs: nounwind uwtable
define internal ptr @socket_if_indextoname(ptr noundef %0, ptr noundef %1) #0 {
  %3 = alloca ptr, align 8
  %4 = alloca ptr, align 8
  %5 = alloca ptr, align 8
  %6 = alloca i64, align 8
  %7 = alloca i32, align 4
  %8 = alloca i32, align 4
  %9 = alloca [17 x i8], align 16
  store ptr %0, ptr %4, align 8, !tbaa !3
  store ptr %1, ptr %5, align 8, !tbaa !3
  call void @llvm.lifetime.start.p0(i64 8, ptr %6) #10
  %10 = load ptr, ptr %5, align 8, !tbaa !3
  %11 = call i64 @PyLong_AsUnsignedLong(ptr noundef %10)
  store i64 %11, ptr %6, align 8, !tbaa !52
  %12 = load i64, ptr %6, align 8, !tbaa !52
  %13 = icmp eq i64 %12, -1
  br i1 %13, label %14, label %18

14:                                               ; preds = %2
  %15 = call ptr @PyErr_Occurred()
  %16 = icmp ne ptr %15, null
  br i1 %16, label %17, label %18

17:                                               ; preds = %14
  store ptr null, ptr %3, align 8
  store i32 1, ptr %7, align 4
  br label %40

18:                                               ; preds = %14, %2
  call void @llvm.lifetime.start.p0(i64 4, ptr %8) #10
  %19 = load i64, ptr %6, align 8, !tbaa !52
  %20 = trunc i64 %19 to i32
  store i32 %20, ptr %8, align 4, !tbaa !15
  %21 = load i32, ptr %8, align 4, !tbaa !15
  %22 = zext i32 %21 to i64
  %23 = load i64, ptr %6, align 8, !tbaa !52
  %24 = icmp ne i64 %22, %23
  br i1 %24, label %25, label %27

25:                                               ; preds = %18
  %26 = load ptr, ptr @PyExc_OverflowError, align 8, !tbaa !3
  call void @PyErr_SetString(ptr noundef %26, ptr noundef @.str.119)
  store ptr null, ptr %3, align 8
  store i32 1, ptr %7, align 4
  br label %39

27:                                               ; preds = %18
  call void @llvm.lifetime.start.p0(i64 17, ptr %9) #10
  %28 = load i32, ptr %8, align 4, !tbaa !15
  %29 = getelementptr inbounds [17 x i8], ptr %9, i64 0, i64 0
  %30 = call ptr @if_indextoname(i32 noundef %28, ptr noundef %29) #10
  %31 = icmp eq ptr %30, null
  br i1 %31, label %32, label %35

32:                                               ; preds = %27
  %33 = load ptr, ptr @PyExc_OSError, align 8, !tbaa !3
  %34 = call ptr @PyErr_SetFromErrno(ptr noundef %33)
  store ptr null, ptr %3, align 8
  store i32 1, ptr %7, align 4
  br label %38

35:                                               ; preds = %27
  %36 = getelementptr inbounds [17 x i8], ptr %9, i64 0, i64 0
  %37 = call ptr @PyUnicode_DecodeFSDefault(ptr noundef %36)
  store ptr %37, ptr %3, align 8
  store i32 1, ptr %7, align 4
  br label %38

38:                                               ; preds = %35, %32
  call void @llvm.lifetime.end.p0(i64 17, ptr %9) #10
  br label %39

39:                                               ; preds = %38, %25
  call void @llvm.lifetime.end.p0(i64 4, ptr %8) #10
  br label %40

40:                                               ; preds = %39, %17
  call void @llvm.lifetime.end.p0(i64 8, ptr %6) #10
  %41 = load ptr, ptr %3, align 8
  ret ptr %41
}