; Function Attrs: nounwind uwtable
define internal ptr @socket_if_indextoname(ptr readnone captures(none) %0, ptr noundef %1) #0 {
  %3 = alloca [17 x i8], align 16
  %4 = tail call i64 @PyLong_AsUnsignedLong(ptr noundef %1) #13
  %5 = icmp eq i64 %4, -1
  br i1 %5, label %6, label %8

6:                                                ; preds = %2
  %7 = tail call ptr @PyErr_Occurred() #13
  %.not = icmp eq ptr %7, null
  br i1 %.not, label %.thread, label %20

8:                                                ; preds = %2
  %.not6 = icmp ult i64 %4, 4294967296
  br i1 %.not6, label %10, label %.thread

.thread:                                          ; preds = %6, %8
  %9 = load ptr, ptr @PyExc_OverflowError, align 8, !tbaa !19
  tail call void @PyErr_SetString(ptr noundef %9, ptr noundef nonnull @.str.119) #13
  br label %20

10:                                               ; preds = %8
  %11 = trunc nuw i64 %4 to i32
  call void @llvm.lifetime.start.p0(i64 17, ptr nonnull %3) #13
  %12 = call ptr @if_indextoname(i32 noundef %11, ptr noundef nonnull %3) #13
  %13 = icmp eq ptr %12, null
  br i1 %13, label %14, label %17

14:                                               ; preds = %10
  %15 = load ptr, ptr @PyExc_OSError, align 8, !tbaa !19
  %16 = call ptr @PyErr_SetFromErrno(ptr noundef %15) #13
  br label %19

17:                                               ; preds = %10
  %18 = call ptr @PyUnicode_DecodeFSDefault(ptr noundef nonnull %3) #13
  br label %19

19:                                               ; preds = %17, %14
  %.2 = phi ptr [ null, %14 ], [ %18, %17 ]
  call void @llvm.lifetime.end.p0(i64 17, ptr nonnull %3) #13
  br label %20

20:                                               ; preds = %.thread, %19, %6
  %.0 = phi ptr [ null, %6 ], [ null, %.thread ], [ %.2, %19 ]
  ret ptr %.0
}